target datalayout = "e-m:e-p270:32:32-p271:32:32-p272:64:64-i64:64-i128:128-f80:128-n8:16:32:64-S128"
target triple = "x86_64-pc-linux-gnu"

%"struct.mitsuba::ArgParser::Arg" = type { %"class.std::__1::vector", i8, i8, ptr, %"class.std::__1::basic_string" }
%"class.std::__1::vector" = type { ptr, ptr, %"class.std::__1::__compressed_pair" }
%"class.std::__1::__compressed_pair" = type { %"struct.std::__1::__compressed_pair_elem" }
%"struct.std::__1::__compressed_pair_elem" = type { ptr }
%"class.std::__1::basic_string" = type { %"class.std::__1::__compressed_pair.1" }
%"class.std::__1::__compressed_pair.1" = type { %"struct.std::__1::__compressed_pair_elem.2" }
%"struct.std::__1::__compressed_pair_elem.2" = type { %"struct.std::__1::basic_string<char>::__rep" }
%"struct.std::__1::basic_string<char>::__rep" = type { %union.anon }
%union.anon = type { %"struct.std::__1::basic_string<char>::__long" }
%"struct.std::__1::basic_string<char>::__long" = type { %struct.anon.3, i64, ptr }
%struct.anon.3 = type { i64 }

; Function Attrs: mustprogress nounwind uwtable
define linkonce_odr noundef ptr @_ZNK7mitsuba9ArgParser3Arg4nextEv(ptr noundef nonnull align 8 dereferenceable(64) %0) #4 comdat align 2 {
  %2 = alloca ptr, align 8
  store ptr %0, ptr %2, align 8
  %3 = load ptr, ptr %2, align 8
  %4 = getelementptr inbounds %"struct.mitsuba::ArgParser::Arg", ptr %3, i32 0, i32 3
  %5 = load ptr, ptr %4, align 8
  ret ptr %5
}

; Function Attrs: mustprogress uwtable
define noundef i64 @_ZNK7mitsuba9ArgParser3Arg5countEv(ptr noundef nonnull align 8 dereferenceable(64) %0) #0 align 2 {
  %2 = alloca ptr, align 8
  %3 = alloca ptr, align 8
  %4 = alloca i64, align 8
  store ptr %0, ptr %2, align 8
  %5 = load ptr, ptr %2, align 8
  store ptr %5, ptr %3, align 8
  store i64 0, ptr %4, align 8
  br label %6

6:                                                ; preds = %9, %1
  %7 = load ptr, ptr %3, align 8
  %8 = icmp ne ptr %7, null
  br i1 %8, label %9, label %20

9:                                                ; preds = %6
  %10 = load ptr, ptr %3, align 8
  %11 = getelementptr inbounds %"struct.mitsuba::ArgParser::Arg", ptr %10, i32 0, i32 2
  %12 = load i8, ptr %11, align 1
  %13 = trunc i8 %12 to i1
  %14 = select i1 %13, i32 1, i32 0
  %15 = sext i32 %14 to i64
  %16 = load i64, ptr %4, align 8
  %17 = add i64 %16, %15
  store i64 %17, ptr %4, align 8
  %18 = load ptr, ptr %3, align 8
  %19 = call noundef ptr @_ZNK7mitsuba9ArgParser3Arg4nextEv(ptr noundef nonnull align 8 dereferenceable(64) %18)
  store ptr %19, ptr %3, align 8
  br label %6, !llvm.loop !4

20:                                               ; preds = %6
  %21 = load i64, ptr %4, align 8
  ret i64 %21
}