; Function Attrs: mustprogress nofree norecurse nosync nounwind willreturn memory(read, inaccessiblemem: none) uwtable
define noundef i64 @_ZNK7mitsuba9ArgParser3Arg5countEv(ptr nocapture noundef nonnull readonly align 8 dereferenceable(64) %0) local_unnamed_addr #4 align 2 {
  br label %2

2:                                                ; preds = %1, %2
  %.08 = phi i64 [ 0, %1 ], [ %7, %2 ]
  %.057 = phi ptr [ %0, %1 ], [ %9, %2 ]
  %3 = getelementptr inbounds i8, ptr %.057, i64 25
  %4 = load i8, ptr %3, align 1
  %5 = and i8 %4, 1
  %6 = zext nneg i8 %5 to i64
  %7 = add i64 %.08, %6
  %8 = getelementptr inbounds i8, ptr %.057, i64 32
  %9 = load ptr, ptr %8, align 8
  %.not = icmp eq ptr %9, null
  br i1 %.not, label %10, label %2, !llvm.loop !4

10:                                               ; preds = %2
  ret i64 %7
}